target datalayout = "e-m:e-p270:32:32-p271:32:32-p272:64:64-i64:64-i128:128-f80:128-n8:16:32:64-S128"
target triple = "x86_64-pc-linux-gnu"

%struct.AVPacket = type { ptr, i64, i64, ptr, i32, i32, i32, ptr, i32, i64, i64, ptr, ptr, %struct.AVRational }
%struct.AVRational = type { i32, i32 }
%struct.AVCodecContext = type { ptr, i32, i32, ptr, i32, i32, ptr, ptr, ptr, i64, i32, i32, ptr, i32, %struct.AVRational, %struct.AVRational, %struct.AVRational, i32, i32, i32, i32, i32, %struct.AVRational, i32, i32, i32, i32, i32, i32, i32, i32, i32, i32, i32, ptr, ptr, i32, float, float, float, float, float, float, float, float, float, i32, i32, i32, i32, i32, i32, i32, i32, i32, i32, i32, i32, ptr, ptr, ptr, i32, i32, i32, i32, i32, i32, i32, i32, i32, i32, %struct.AVChannelLayout, i32, i32, i32, i32, i32, i32, i32, i32, ptr, i32, i32, i32, float, float, i32, i32, i32, i32, i32, ptr, i64, i64, float, float, i32, i32, ptr, ptr, i32, i32, i32, i32, i32, ptr, ptr, ptr, ptr, i32, i32, [8 x i64], i32, i32, i32, i32, i32, i32, i32, ptr, ptr, i32, i32, i32, i32, i32, i32, i32, i32, i32, i32, ptr, ptr, i32, i32, ptr, ptr, ptr, ptr, i32, i32, i64, i32, i32, i64, ptr, i64, ptr, i32, ptr, i32 }
%struct.AVChannelLayout = type { i32, i32, %union.anon.0, ptr }
%union.anon.0 = type { i64 }

@sp5x_qscale_five_quant_table = internal constant [2 x [64 x i8]] [[64 x i8] c"\0D\09\0A\0B\0A\08\0D\0B\0A\0B\0E\0E\0D\0F\13 \15\13\12\12\13'\1C\1E\17 .)10.)-,3:J>36F7,-@WAFLNRSR2>ZaZP`JQRO", [64 x i8] c"\0E\0E\0E\13\11\13&\15\15&O5-5OOOOOOOOOOOOOOOOOOOOOOOOOOOOOOOOOOOOOOOOOOOOOOOOOO"], align 16
@sp5x_data_sof = internal constant [19 x i8] c"\FF\C0\00\11\08\00\F0\01@\03\01\22\00\02\11\01\03\11\01", align 16
@sp5x_data_sos = internal constant [14 x i8] c"\FF\DA\00\0C\03\01\00\02\11\03\11\00?\00", align 1

; Function Attrs: alwaysinline nounwind willreturn memory(none) uwtable
define internal zeroext i16 @av_bswap16(i16 noundef zeroext %0) #4 {
  %2 = alloca i16, align 2
  store i16 %0, ptr %2, align 2, !tbaa !47
  %3 = load i16, ptr %2, align 2, !tbaa !47
  %4 = zext i16 %3 to i32
  %5 = ashr i32 %4, 8
  %6 = load i16, ptr %2, align 2, !tbaa !47
  %7 = zext i16 %6 to i32
  %8 = shl i32 %7, 8
  %9 = or i32 %5, %8
  %10 = trunc i32 %9 to i16
  store i16 %10, ptr %2, align 2, !tbaa !47
  %11 = load i16, ptr %2, align 2, !tbaa !47
  ret i16 %11
}

; Function Attrs: nounwind uwtable
define internal i32 @sp5x_decode_frame(ptr noundef %0, ptr noundef %1, ptr noundef %2, ptr noundef %3) #1 {
  %5 = alloca i32, align 4
  %6 = alloca ptr, align 8
  %7 = alloca ptr, align 8
  %8 = alloca ptr, align 8
  %9 = alloca ptr, align 8
  %10 = alloca ptr, align 8
  %11 = alloca i32, align 4
  %12 = alloca ptr, align 8
  %13 = alloca i32, align 4
  %14 = alloca i32, align 4
  %15 = alloca i32, align 4
  %16 = alloca i32, align 4
  store ptr %0, ptr %6, align 8, !tbaa !4
  store ptr %1, ptr %7, align 8, !tbaa !9
  store ptr %2, ptr %8, align 8, !tbaa !11
  store ptr %3, ptr %9, align 8, !tbaa !13
  call void @llvm.lifetime.start.p0(i64 8, ptr %10) #5
  %17 = load ptr, ptr %9, align 8, !tbaa !13
  %18 = getelementptr inbounds nuw %struct.AVPacket, ptr %17, i32 0, i32 3
  %19 = load ptr, ptr %18, align 8, !tbaa !15
  store ptr %19, ptr %10, align 8, !tbaa !23
  call void @llvm.lifetime.start.p0(i64 4, ptr %11) #5
  %20 = load ptr, ptr %9, align 8, !tbaa !13
  %21 = getelementptr inbounds nuw %struct.AVPacket, ptr %20, i32 0, i32 4
  %22 = load i32, ptr %21, align 8, !tbaa !24
  store i32 %22, ptr %11, align 4, !tbaa !25
  call void @llvm.lifetime.start.p0(i64 8, ptr %12) #5
  call void @llvm.lifetime.start.p0(i64 4, ptr %13) #5
  store i32 0, ptr %13, align 4, !tbaa !25
  call void @llvm.lifetime.start.p0(i64 4, ptr %14) #5
  store i32 0, ptr %14, align 4, !tbaa !25
  call void @llvm.lifetime.start.p0(i64 4, ptr %15) #5
  %23 = load ptr, ptr %6, align 8, !tbaa !4
  %24 = getelementptr inbounds nuw %struct.AVCodecContext, ptr %23, i32 0, i32 18
  %25 = load i32, ptr %24, align 8, !tbaa !26
  %26 = icmp ne i32 %25, 0
  br i1 %26, label %27, label %32

27:                                               ; preds = %4
  %28 = load ptr, ptr %6, align 8, !tbaa !4
  %29 = getelementptr inbounds nuw %struct.AVCodecContext, ptr %28, i32 0, i32 19
  %30 = load i32, ptr %29, align 4, !tbaa !39
  %31 = icmp ne i32 %30, 0
  br i1 %31, label %33, label %32

32:                                               ; preds = %27, %4
  store i32 -1, ptr %5, align 4
  store i32 1, ptr %16, align 4
  br label %218

33:                                               ; preds = %27
  %34 = load i32, ptr %11, align 4, !tbaa !25
  %35 = add nsw i32 %34, 1024
  %36 = sext i32 %35 to i64
  %37 = call noalias ptr @av_mallocz(i64 noundef %36)
  store ptr %37, ptr %12, align 8, !tbaa !23
  %38 = load ptr, ptr %12, align 8, !tbaa !23
  %39 = icmp ne ptr %38, null
  br i1 %39, label %41, label %40

40:                                               ; preds = %33
  store i32 -1, ptr %5, align 4
  store i32 1, ptr %16, align 4
  br label %218

41:                                               ; preds = %33
  %42 = load ptr, ptr %12, align 8, !tbaa !23
  %43 = load i32, ptr %14, align 4, !tbaa !25
  %44 = add nsw i32 %43, 1
  store i32 %44, ptr %14, align 4, !tbaa !25
  %45 = sext i32 %43 to i64
  %46 = getelementptr inbounds i8, ptr %42, i64 %45
  store i8 -1, ptr %46, align 1, !tbaa !40
  %47 = load ptr, ptr %12, align 8, !tbaa !23
  %48 = load i32, ptr %14, align 4, !tbaa !25
  %49 = add nsw i32 %48, 1
  store i32 %49, ptr %14, align 4, !tbaa !25
  %50 = sext i32 %48 to i64
  %51 = getelementptr inbounds i8, ptr %47, i64 %50
  store i8 -40, ptr %51, align 1, !tbaa !40
  %52 = load ptr, ptr %12, align 8, !tbaa !23
  %53 = load i32, ptr %14, align 4, !tbaa !25
  %54 = sext i32 %53 to i64
  %55 = getelementptr inbounds i8, ptr %52, i64 %54
  call void @llvm.memcpy.p0.p0.i64(ptr align 1 %55, ptr align 16 @sp5x_data_dqt, i64 134, i1 false)
  %56 = load ptr, ptr %12, align 8, !tbaa !23
  %57 = load i32, ptr %14, align 4, !tbaa !25
  %58 = sext i32 %57 to i64
  %59 = getelementptr inbounds i8, ptr %56, i64 %58
  %60 = getelementptr inbounds i8, ptr %59, i64 5
  call void @llvm.memcpy.p0.p0.i64(ptr align 1 %60, ptr align 16 @sp5x_qscale_five_quant_table, i64 64, i1 false)
  %61 = load ptr, ptr %12, align 8, !tbaa !23
  %62 = load i32, ptr %14, align 4, !tbaa !25
  %63 = sext i32 %62 to i64
  %64 = getelementptr inbounds i8, ptr %61, i64 %63
  %65 = getelementptr inbounds i8, ptr %64, i64 70
  call void @llvm.memcpy.p0.p0.i64(ptr align 1 %65, ptr align 16 getelementptr inbounds ([2 x [64 x i8]], ptr @sp5x_qscale_five_quant_table, i64 0, i64 1), i64 64, i1 false)
  %66 = load i32, ptr %14, align 4, !tbaa !25
  %67 = sext i32 %66 to i64
  %68 = add i64 %67, 134
  %69 = trunc i64 %68 to i32
  store i32 %69, ptr %14, align 4, !tbaa !25
  %70 = load ptr, ptr %12, align 8, !tbaa !23
  %71 = load i32, ptr %14, align 4, !tbaa !25
  %72 = sext i32 %71 to i64
  %73 = getelementptr inbounds i8, ptr %70, i64 %72
  call void @llvm.memcpy.p0.p0.i64(ptr align 1 %73, ptr align 16 @sp5x_data_dht, i64 420, i1 false)
  %74 = load i32, ptr %14, align 4, !tbaa !25
  %75 = sext i32 %74 to i64
  %76 = add i64 %75, 420
  %77 = trunc i64 %76 to i32
  store i32 %77, ptr %14, align 4, !tbaa !25
  %78 = load ptr, ptr %12, align 8, !tbaa !23
  %79 = load i32, ptr %14, align 4, !tbaa !25
  %80 = sext i32 %79 to i64
  %81 = getelementptr inbounds i8, ptr %78, i64 %80
  call void @llvm.memcpy.p0.p0.i64(ptr align 1 %81, ptr align 16 @sp5x_data_sof, i64 19, i1 false)
  %82 = load ptr, ptr %6, align 8, !tbaa !4
  %83 = getelementptr inbounds nuw %struct.AVCodecContext, ptr %82, i32 0, i32 21
  %84 = load i32, ptr %83, align 4, !tbaa !41
  %85 = trunc i32 %84 to i16
  %86 = call zeroext i16 @av_bswap16(i16 noundef zeroext %85) #6
  %87 = load ptr, ptr %12, align 8, !tbaa !23
  %88 = load i32, ptr %14, align 4, !tbaa !25
  %89 = sext i32 %88 to i64
  %90 = getelementptr inbounds i8, ptr %87, i64 %89
  %91 = getelementptr inbounds i8, ptr %90, i64 5
  store i16 %86, ptr %91, align 1, !tbaa !40
  %92 = load ptr, ptr %6, align 8, !tbaa !4
  %93 = getelementptr inbounds nuw %struct.AVCodecContext, ptr %92, i32 0, i32 20
  %94 = load i32, ptr %93, align 8, !tbaa !42
  %95 = trunc i32 %94 to i16
  %96 = call zeroext i16 @av_bswap16(i16 noundef zeroext %95) #6
  %97 = load ptr, ptr %12, align 8, !tbaa !23
  %98 = load i32, ptr %14, align 4, !tbaa !25
  %99 = sext i32 %98 to i64
  %100 = getelementptr inbounds i8, ptr %97, i64 %99
  %101 = getelementptr inbounds i8, ptr %100, i64 7
  store i16 %96, ptr %101, align 1, !tbaa !40
  %102 = load i32, ptr %14, align 4, !tbaa !25
  %103 = sext i32 %102 to i64
  %104 = add i64 %103, 19
  %105 = trunc i64 %104 to i32
  store i32 %105, ptr %14, align 4, !tbaa !25
  %106 = load ptr, ptr %12, align 8, !tbaa !23
  %107 = load i32, ptr %14, align 4, !tbaa !25
  %108 = sext i32 %107 to i64
  %109 = getelementptr inbounds i8, ptr %106, i64 %108
  call void @llvm.memcpy.p0.p0.i64(ptr align 1 %109, ptr align 1 @sp5x_data_sos, i64 14, i1 false)
  %110 = load i32, ptr %14, align 4, !tbaa !25
  %111 = sext i32 %110 to i64
  %112 = add i64 %111, 14
  %113 = trunc i64 %112 to i32
  store i32 %113, ptr %14, align 4, !tbaa !25
  %114 = load ptr, ptr %6, align 8, !tbaa !4
  %115 = getelementptr inbounds nuw %struct.AVCodecContext, ptr %114, i32 0, i32 4
  %116 = load i32, ptr %115, align 8, !tbaa !43
  %117 = icmp eq i32 %116, 107
  br i1 %117, label %118, label %147

118:                                              ; preds = %41
  store i32 2, ptr %13, align 4, !tbaa !25
  br label %119

119:                                              ; preds = %143, %118
  %120 = load i32, ptr %13, align 4, !tbaa !25
  %121 = load i32, ptr %11, align 4, !tbaa !25
  %122 = sub nsw i32 %121, 2
  %123 = icmp slt i32 %120, %122
  br i1 %123, label %124, label %130

124:                                              ; preds = %119
  %125 = load i32, ptr %14, align 4, !tbaa !25
  %126 = load i32, ptr %11, align 4, !tbaa !25
  %127 = add nsw i32 %126, 1024
  %128 = sub nsw i32 %127, 2
  %129 = icmp slt i32 %125, %128
  br label %130

130:                                              ; preds = %124, %119
  %131 = phi i1 [ false, %119 ], [ %129, %124 ]
  br i1 %131, label %132, label %146

132:                                              ; preds = %130
  %133 = load ptr, ptr %10, align 8, !tbaa !23
  %134 = load i32, ptr %13, align 4, !tbaa !25
  %135 = sext i32 %134 to i64
  %136 = getelementptr inbounds i8, ptr %133, i64 %135
  %137 = load i8, ptr %136, align 1, !tbaa !40
  %138 = load ptr, ptr %12, align 8, !tbaa !23
  %139 = load i32, ptr %14, align 4, !tbaa !25
  %140 = add nsw i32 %139, 1
  store i32 %140, ptr %14, align 4, !tbaa !25
  %141 = sext i32 %139 to i64
  %142 = getelementptr inbounds i8, ptr %138, i64 %141
  store i8 %137, ptr %142, align 1, !tbaa !40
  br label %143

143:                                              ; preds = %132
  %144 = load i32, ptr %13, align 4, !tbaa !25
  %145 = add nsw i32 %144, 1
  store i32 %145, ptr %13, align 4, !tbaa !25
  br label %119, !llvm.loop !44

146:                                              ; preds = %130
  br label %189

147:                                              ; preds = %41
  store i32 14, ptr %13, align 4, !tbaa !25
  br label %148

148:                                              ; preds = %185, %147
  %149 = load i32, ptr %13, align 4, !tbaa !25
  %150 = load i32, ptr %11, align 4, !tbaa !25
  %151 = icmp slt i32 %149, %150
  br i1 %151, label %152, label %158

152:                                              ; preds = %148
  %153 = load i32, ptr %14, align 4, !tbaa !25
  %154 = load i32, ptr %11, align 4, !tbaa !25
  %155 = add nsw i32 %154, 1024
  %156 = sub nsw i32 %155, 3
  %157 = icmp slt i32 %153, %156
  br label %158

158:                                              ; preds = %152, %148
  %159 = phi i1 [ false, %148 ], [ %157, %152 ]
  br i1 %159, label %160, label %188

160:                                              ; preds = %158
  %161 = load ptr, ptr %10, align 8, !tbaa !23
  %162 = load i32, ptr %13, align 4, !tbaa !25
  %163 = sext i32 %162 to i64
  %164 = getelementptr inbounds i8, ptr %161, i64 %163
  %165 = load i8, ptr %164, align 1, !tbaa !40
  %166 = load ptr, ptr %12, align 8, !tbaa !23
  %167 = load i32, ptr %14, align 4, !tbaa !25
  %168 = add nsw i32 %167, 1
  store i32 %168, ptr %14, align 4, !tbaa !25
  %169 = sext i32 %167 to i64
  %170 = getelementptr inbounds i8, ptr %166, i64 %169
  store i8 %165, ptr %170, align 1, !tbaa !40
  %171 = load ptr, ptr %10, align 8, !tbaa !23
  %172 = load i32, ptr %13, align 4, !tbaa !25
  %173 = sext i32 %172 to i64
  %174 = getelementptr inbounds i8, ptr %171, i64 %173
  %175 = load i8, ptr %174, align 1, !tbaa !40
  %176 = zext i8 %175 to i32
  %177 = icmp eq i32 %176, 255
  br i1 %177, label %178, label %184

178:                                              ; preds = %160
  %179 = load ptr, ptr %12, align 8, !tbaa !23
  %180 = load i32, ptr %14, align 4, !tbaa !25
  %181 = add nsw i32 %180, 1
  store i32 %181, ptr %14, align 4, !tbaa !25
  %182 = sext i32 %180 to i64
  %183 = getelementptr inbounds i8, ptr %179, i64 %182
  store i8 0, ptr %183, align 1, !tbaa !40
  br label %184

184:                                              ; preds = %178, %160
  br label %185

185:                                              ; preds = %184
  %186 = load i32, ptr %13, align 4, !tbaa !25
  %187 = add nsw i32 %186, 1
  store i32 %187, ptr %13, align 4, !tbaa !25
  br label %148, !llvm.loop !46

188:                                              ; preds = %158
  br label %189

189:                                              ; preds = %188, %146
  %190 = load ptr, ptr %12, align 8, !tbaa !23
  %191 = load i32, ptr %14, align 4, !tbaa !25
  %192 = add nsw i32 %191, 1
  store i32 %192, ptr %14, align 4, !tbaa !25
  %193 = sext i32 %191 to i64
  %194 = getelementptr inbounds i8, ptr %190, i64 %193
  store i8 -1, ptr %194, align 1, !tbaa !40
  %195 = load ptr, ptr %12, align 8, !tbaa !23
  %196 = load i32, ptr %14, align 4, !tbaa !25
  %197 = add nsw i32 %196, 1
  store i32 %197, ptr %14, align 4, !tbaa !25
  %198 = sext i32 %196 to i64
  %199 = getelementptr inbounds i8, ptr %195, i64 %198
  store i8 -39, ptr %199, align 1, !tbaa !40
  %200 = load ptr, ptr %6, align 8, !tbaa !4
  %201 = load ptr, ptr %7, align 8, !tbaa !9
  %202 = load ptr, ptr %8, align 8, !tbaa !11
  %203 = load ptr, ptr %9, align 8, !tbaa !13
  %204 = load ptr, ptr %12, align 8, !tbaa !23
  %205 = load i32, ptr %14, align 4, !tbaa !25
  %206 = call i32 @ff_mjpeg_decode_frame_from_buf(ptr noundef %200, ptr noundef %201, ptr noundef %202, ptr noundef %203, ptr noundef %204, i32 noundef %205)
  store i32 %206, ptr %15, align 4, !tbaa !25
  %207 = load ptr, ptr %12, align 8, !tbaa !23
  call void @av_free(ptr noundef %207)
  %208 = load i32, ptr %15, align 4, !tbaa !25
  %209 = icmp slt i32 %208, 0
  br i1 %209, label %210, label %212

210:                                              ; preds = %189
  %211 = load i32, ptr %15, align 4, !tbaa !25
  br label %216

212:                                              ; preds = %189
  %213 = load ptr, ptr %9, align 8, !tbaa !13
  %214 = getelementptr inbounds nuw %struct.AVPacket, ptr %213, i32 0, i32 4
  %215 = load i32, ptr %214, align 8, !tbaa !24
  br label %216

216:                                              ; preds = %212, %210
  %217 = phi i32 [ %211, %210 ], [ %215, %212 ]
  store i32 %217, ptr %5, align 4
  store i32 1, ptr %16, align 4
  br label %218

218:                                              ; preds = %216, %40, %32
  call void @llvm.lifetime.end.p0(i64 4, ptr %15) #5
  call void @llvm.lifetime.end.p0(i64 4, ptr %14) #5
  call void @llvm.lifetime.end.p0(i64 4, ptr %13) #5
  call void @llvm.lifetime.end.p0(i64 8, ptr %12) #5
  call void @llvm.lifetime.end.p0(i64 4, ptr %11) #5
  call void @llvm.lifetime.end.p0(i64 8, ptr %10) #5
  %219 = load i32, ptr %5, align 4
  ret i32 %219
}