; Function Attrs: nounwind uwtable
define internal i32 @sp5x_decode_frame(ptr noundef %0, ptr noundef %1, ptr noundef %2, ptr noundef %3) #1 {
  %5 = getelementptr inbounds nuw i8, ptr %3, i64 24
  %6 = load ptr, ptr %5, align 8, !tbaa !4
  %7 = getelementptr inbounds nuw i8, ptr %3, i64 32
  %8 = load i32, ptr %7, align 8, !tbaa !15
  %9 = getelementptr inbounds nuw i8, ptr %0, i64 112
  %10 = load i32, ptr %9, align 8, !tbaa !16
  %.not = icmp eq i32 %10, 0
  br i1 %.not, label %74, label %11

11:                                               ; preds = %4
  %12 = getelementptr inbounds nuw i8, ptr %0, i64 116
  %13 = load i32, ptr %12, align 4, !tbaa !30
  %.not76 = icmp eq i32 %13, 0
  br i1 %.not76, label %74, label %14

14:                                               ; preds = %11
  %15 = add nsw i32 %8, 1024
  %16 = sext i32 %15 to i64
  %17 = tail call noalias ptr @av_mallocz(i64 noundef %16) #4
  %.not77 = icmp eq ptr %17, null
  br i1 %.not77, label %74, label %18

18:                                               ; preds = %14
  store i8 -1, ptr %17, align 1, !tbaa !31
  %19 = getelementptr inbounds nuw i8, ptr %17, i64 1
  store i8 -40, ptr %19, align 1, !tbaa !31
  %20 = getelementptr inbounds nuw i8, ptr %17, i64 2
  tail call void @llvm.memcpy.p0.p0.i64(ptr noundef nonnull align 1 dereferenceable(134) %20, ptr noundef nonnull align 16 dereferenceable(134) @sp5x_data_dqt, i64 70, i1 false)
  %21 = getelementptr inbounds nuw i8, ptr %17, i64 7
  tail call void @llvm.memcpy.p0.p0.i64(ptr noundef nonnull align 1 dereferenceable(64) %21, ptr noundef nonnull align 16 dereferenceable(64) @sp5x_qscale_five_quant_table, i64 64, i1 false)
  %22 = getelementptr inbounds nuw i8, ptr %17, i64 72
  tail call void @llvm.memcpy.p0.p0.i64(ptr noundef nonnull align 1 dereferenceable(64) %22, ptr noundef nonnull align 16 dereferenceable(64) getelementptr inbounds nuw (i8, ptr @sp5x_qscale_five_quant_table, i64 64), i64 64, i1 false)
  %23 = getelementptr inbounds nuw i8, ptr %17, i64 136
  tail call void @llvm.memcpy.p0.p0.i64(ptr noundef nonnull align 1 dereferenceable(420) %23, ptr noundef nonnull align 16 dereferenceable(420) @sp5x_data_dht, i64 420, i1 false)
  %24 = getelementptr inbounds nuw i8, ptr %17, i64 556
  tail call void @llvm.memcpy.p0.p0.i64(ptr noundef nonnull align 1 dereferenceable(19) %24, ptr noundef nonnull align 16 dereferenceable(19) @sp5x_data_sof, i64 19, i1 false)
  %25 = getelementptr inbounds nuw i8, ptr %0, i64 124
  %26 = load i32, ptr %25, align 4, !tbaa !32
  %27 = trunc i32 %26 to i16
  %28 = tail call i16 @llvm.bswap.i16(i16 %27)
  %29 = getelementptr inbounds nuw i8, ptr %17, i64 561
  store i16 %28, ptr %29, align 1, !tbaa !31
  %30 = getelementptr inbounds nuw i8, ptr %0, i64 120
  %31 = load i32, ptr %30, align 8, !tbaa !33
  %32 = trunc i32 %31 to i16
  %33 = tail call i16 @llvm.bswap.i16(i16 %32)
  %34 = getelementptr inbounds nuw i8, ptr %17, i64 563
  store i16 %33, ptr %34, align 1, !tbaa !31
  %35 = getelementptr inbounds nuw i8, ptr %17, i64 575
  tail call void @llvm.memcpy.p0.p0.i64(ptr noundef nonnull align 1 dereferenceable(14) %35, ptr noundef nonnull align 1 dereferenceable(14) @sp5x_data_sos, i64 14, i1 false)
  %36 = getelementptr inbounds nuw i8, ptr %0, i64 24
  %37 = load i32, ptr %36, align 8, !tbaa !34
  %38 = icmp eq i32 %37, 107
  br i1 %38, label %.preheader, label %.preheader81

.preheader81:                                     ; preds = %18
  %39 = add nsw i32 %8, 1021
  %40 = icmp sgt i32 %8, 14
  br i1 %40, label %.lr.ph.preheader, label %.critedge

.lr.ph.preheader:                                 ; preds = %.preheader81
  %41 = zext nneg i32 %8 to i64
  br label %.lr.ph

.preheader:                                       ; preds = %18
  %42 = icmp sgt i32 %8, 4
  br i1 %42, label %.lr.ph89.preheader, label %.critedge

.lr.ph89.preheader:                               ; preds = %.preheader
  %43 = add nsw i32 %8, -2
  %44 = zext nneg i32 %43 to i64
  %45 = add nuw nsw i32 %8, 1021
  %46 = zext nneg i32 %45 to i64
  br label %.lr.ph89

.lr.ph89:                                         ; preds = %.lr.ph89.preheader, %.lr.ph89
  %indvars.iv96 = phi i64 [ 2, %.lr.ph89.preheader ], [ %indvars.iv.next97, %.lr.ph89 ]
  %indvars.iv94 = phi i64 [ 589, %.lr.ph89.preheader ], [ %indvars.iv.next95, %.lr.ph89 ]
  %47 = getelementptr inbounds nuw i8, ptr %6, i64 %indvars.iv96
  %48 = load i8, ptr %47, align 1, !tbaa !31
  %indvars.iv.next95 = add nuw nsw i64 %indvars.iv94, 1
  %49 = getelementptr inbounds nuw i8, ptr %17, i64 %indvars.iv94
  store i8 %48, ptr %49, align 1, !tbaa !31
  %indvars.iv.next97 = add nuw nsw i64 %indvars.iv96, 1
  %50 = icmp samesign ult i64 %indvars.iv.next97, %44
  %51 = icmp samesign ult i64 %indvars.iv94, %46
  %or.cond = select i1 %50, i1 %51, i1 false
  br i1 %or.cond, label %.lr.ph89, label %.critedge.loopexit, !llvm.loop !35

.lr.ph:                                           ; preds = %.lr.ph.preheader, %62
  %indvars.iv = phi i64 [ 14, %.lr.ph.preheader ], [ %indvars.iv.next, %62 ]
  %.285 = phi i32 [ 589, %.lr.ph.preheader ], [ %.3, %62 ]
  %52 = getelementptr inbounds nuw i8, ptr %6, i64 %indvars.iv
  %53 = load i8, ptr %52, align 1, !tbaa !31
  %54 = add nsw i32 %.285, 1
  %55 = sext i32 %.285 to i64
  %56 = getelementptr inbounds i8, ptr %17, i64 %55
  store i8 %53, ptr %56, align 1, !tbaa !31
  %57 = icmp eq i8 %53, -1
  br i1 %57, label %58, label %62

58:                                               ; preds = %.lr.ph
  %59 = add nsw i32 %.285, 2
  %60 = sext i32 %54 to i64
  %61 = getelementptr inbounds i8, ptr %17, i64 %60
  store i8 0, ptr %61, align 1, !tbaa !31
  br label %62

62:                                               ; preds = %.lr.ph, %58
  %.3 = phi i32 [ %59, %58 ], [ %54, %.lr.ph ]
  %indvars.iv.next = add nuw nsw i64 %indvars.iv, 1
  %63 = icmp samesign ult i64 %indvars.iv.next, %41
  %64 = icmp slt i32 %.3, %39
  %or.cond80 = select i1 %63, i1 %64, i1 false
  br i1 %or.cond80, label %.lr.ph, label %.critedge, !llvm.loop !37

.critedge.loopexit:                               ; preds = %.lr.ph89
  %65 = trunc nuw i64 %indvars.iv.next95 to i32
  br label %.critedge

.critedge:                                        ; preds = %62, %.critedge.loopexit, %.preheader81, %.preheader
  %.1 = phi i32 [ 589, %.preheader ], [ 589, %.preheader81 ], [ %65, %.critedge.loopexit ], [ %.3, %62 ]
  %66 = sext i32 %.1 to i64
  %67 = getelementptr inbounds i8, ptr %17, i64 %66
  store i8 -1, ptr %67, align 1, !tbaa !31
  %68 = add nsw i32 %.1, 2
  %69 = getelementptr i8, ptr %67, i64 1
  store i8 -39, ptr %69, align 1, !tbaa !31
  %70 = tail call i32 @ff_mjpeg_decode_frame_from_buf(ptr noundef %0, ptr noundef %1, ptr noundef %2, ptr noundef %3, ptr noundef nonnull %17, i32 noundef %68) #4
  tail call void @av_free(ptr noundef nonnull %17) #4
  %71 = icmp slt i32 %70, 0
  br i1 %71, label %74, label %72

72:                                               ; preds = %.critedge
  %73 = load i32, ptr %7, align 8, !tbaa !15
  br label %74

74:                                               ; preds = %72, %.critedge, %14, %4, %11
  %.0 = phi i32 [ -1, %11 ], [ -1, %4 ], [ -1, %14 ], [ %73, %72 ], [ %70, %.critedge ]
  ret i32 %.0
}